; Function Attrs: mustprogress uwtable
define void @_ZN6casadi17SerializingStream4packERKNSt7__cxx1112basic_stringIcSt11char_traitsIcESaIcEEE(ptr nocapture noundef nonnull readonly align 8 dereferenceable(73) %0, ptr noundef nonnull align 8 dereferenceable(32) %1) local_unnamed_addr #3 align 2 {
  %3 = alloca i32, align 4
  %4 = getelementptr inbounds i8, ptr %0, i64 72
  %5 = load i8, ptr %4, align 8
  %6 = and i8 %5, 1
  %.not.i = icmp eq i8 %6, 0
  br i1 %.not.i, label %_ZN6casadi17SerializingStream8decorateEc.exit, label %7

7:                                                ; preds = %2
  %8 = getelementptr inbounds i8, ptr %0, i64 64
  %9 = load ptr, ptr %8, align 8
  %10 = tail call noundef nonnull align 8 dereferenceable(8) ptr @_ZNSo3putEc(ptr noundef nonnull align 8 dereferenceable(8) %9, i8 noundef signext 100)
  %11 = load ptr, ptr %8, align 8
  %12 = tail call noundef nonnull align 8 dereferenceable(8) ptr @_ZNSo3putEc(ptr noundef nonnull align 8 dereferenceable(8) %11, i8 noundef signext 104)
  br label %_ZN6casadi17SerializingStream8decorateEc.exit

_ZN6casadi17SerializingStream8decorateEc.exit:    ; preds = %2, %7
  %13 = tail call noundef i64 @_ZNKSt7__cxx1112basic_stringIcSt11char_traitsIcESaIcEE4sizeEv(ptr noundef nonnull align 8 dereferenceable(32) %1) #20
  %14 = trunc i64 %13 to i32
  call void @llvm.lifetime.start.p0(i64 4, ptr nonnull %3)
  %15 = load i8, ptr %4, align 8
  %16 = and i8 %15, 1
  %.not.i.i = icmp eq i8 %16, 0
  br i1 %.not.i.i, label %_ZN6casadi17SerializingStream8decorateEc.exit.i, label %17

17:                                               ; preds = %_ZN6casadi17SerializingStream8decorateEc.exit
  %18 = getelementptr inbounds i8, ptr %0, i64 64
  %19 = load ptr, ptr %18, align 8
  %20 = tail call noundef nonnull align 8 dereferenceable(8) ptr @_ZNSo3putEc(ptr noundef nonnull align 8 dereferenceable(8) %19, i8 noundef signext 106)
  %21 = load ptr, ptr %18, align 8
  %22 = tail call noundef nonnull align 8 dereferenceable(8) ptr @_ZNSo3putEc(ptr noundef nonnull align 8 dereferenceable(8) %21, i8 noundef signext 103)
  br label %_ZN6casadi17SerializingStream8decorateEc.exit.i

_ZN6casadi17SerializingStream8decorateEc.exit.i:  ; preds = %17, %_ZN6casadi17SerializingStream8decorateEc.exit
  store i32 %14, ptr %3, align 4
  %23 = getelementptr inbounds i8, ptr %0, i64 64
  br label %24

24:                                               ; preds = %24, %_ZN6casadi17SerializingStream8decorateEc.exit.i
  %indvars.iv.i = phi i64 [ 0, %_ZN6casadi17SerializingStream8decorateEc.exit.i ], [ %indvars.iv.next.i, %24 ]
  %25 = getelementptr inbounds i8, ptr %3, i64 %indvars.iv.i
  %26 = load i8, ptr %25, align 1
  %27 = load ptr, ptr %23, align 8
  %28 = and i8 %26, 15
  %29 = add nuw nsw i8 %28, 97
  %30 = tail call noundef nonnull align 8 dereferenceable(8) ptr @_ZNSo3putEc(ptr noundef nonnull align 8 dereferenceable(8) %27, i8 noundef signext %29)
  %31 = load ptr, ptr %23, align 8
  %32 = lshr i8 %26, 4
  %narrow.i.i = add nuw nsw i8 %32, 97
  %33 = tail call noundef nonnull align 8 dereferenceable(8) ptr @_ZNSo3putEc(ptr noundef nonnull align 8 dereferenceable(8) %31, i8 noundef signext %narrow.i.i)
  %indvars.iv.next.i = add nuw nsw i64 %indvars.iv.i, 1
  %exitcond.not.i = icmp eq i64 %indvars.iv.next.i, 4
  br i1 %exitcond.not.i, label %_ZN6casadi17SerializingStream4packEi.exit, label %24, !llvm.loop !28

_ZN6casadi17SerializingStream4packEi.exit:        ; preds = %24
  call void @llvm.lifetime.end.p0(i64 4, ptr nonnull %3)
  %34 = tail call noundef ptr @_ZNKSt7__cxx1112basic_stringIcSt11char_traitsIcESaIcEE5c_strEv(ptr noundef nonnull align 8 dereferenceable(32) %1) #20
  %35 = icmp sgt i32 %14, 0
  br i1 %35, label %.lr.ph.preheader, label %._crit_edge

.lr.ph.preheader:                                 ; preds = %_ZN6casadi17SerializingStream4packEi.exit
  %wide.trip.count = and i64 %13, 2147483647
  br label %.lr.ph

.lr.ph:                                           ; preds = %.lr.ph.preheader, %.lr.ph
  %indvars.iv = phi i64 [ 0, %.lr.ph.preheader ], [ %indvars.iv.next, %.lr.ph ]
  %36 = getelementptr inbounds i8, ptr %34, i64 %indvars.iv
  %37 = load i8, ptr %36, align 1
  %38 = load ptr, ptr %23, align 8
  %39 = and i8 %37, 15
  %40 = add nuw nsw i8 %39, 97
  %41 = tail call noundef nonnull align 8 dereferenceable(8) ptr @_ZNSo3putEc(ptr noundef nonnull align 8 dereferenceable(8) %38, i8 noundef signext %40)
  %42 = load ptr, ptr %23, align 8
  %43 = lshr i8 %37, 4
  %narrow.i = add nuw nsw i8 %43, 97
  %44 = tail call noundef nonnull align 8 dereferenceable(8) ptr @_ZNSo3putEc(ptr noundef nonnull align 8 dereferenceable(8) %42, i8 noundef signext %narrow.i)
  %indvars.iv.next = add nuw nsw i64 %indvars.iv, 1
  %exitcond.not = icmp eq i64 %indvars.iv.next, %wide.trip.count
  br i1 %exitcond.not, label %._crit_edge, label %.lr.ph, !llvm.loop !31

._crit_edge:                                      ; preds = %.lr.ph, %_ZN6casadi17SerializingStream4packEi.exit
  ret void
}